target datalayout = "e-m:e-p270:32:32-p271:32:32-p272:64:64-i64:64-i128:128-f80:128-n8:16:32:64-S128"
target triple = "x86_64-pc-linux-gnu"

%class.bit_vector = type { i32, i32, ptr }

; Function Attrs: mustprogress nounwind uwtable
define linkonce_odr hidden noundef i32 @_ZN10bit_vector9num_wordsEj(i32 noundef %0) #6 comdat align 2 {
  %2 = alloca i32, align 4
  store i32 %0, ptr %2, align 4, !tbaa !8
  %3 = load i32, ptr %2, align 4, !tbaa !8
  %4 = add i32 %3, 31
  %5 = udiv i32 %4, 32
  ret i32 %5
}

; Function Attrs: mustprogress nounwind uwtable
define linkonce_odr hidden noundef i32 @_ZNK10bit_vector9num_wordsEv(ptr noundef nonnull align 8 dereferenceable(16) %0) #6 comdat align 2 {
  %2 = alloca ptr, align 8
  store ptr %0, ptr %2, align 8, !tbaa !3
  %3 = load ptr, ptr %2, align 8
  %4 = getelementptr inbounds nuw %class.bit_vector, ptr %3, i32 0, i32 0
  %5 = load i32, ptr %4, align 8, !tbaa !16
  %6 = call noundef i32 @_ZN10bit_vector9num_wordsEj(i32 noundef %5)
  ret i32 %6
}

; Function Attrs: mustprogress uwtable
define hidden noundef zeroext i1 @_ZNK10bit_vector8containsERKS_(ptr noundef nonnull align 8 dereferenceable(16) %0, ptr noundef nonnull align 8 dereferenceable(16) %1) #4 align 2 {
  %3 = alloca i1, align 1
  %4 = alloca ptr, align 8
  %5 = alloca ptr, align 8
  %6 = alloca i32, align 4
  %7 = alloca i32, align 4
  %8 = alloca i32, align 4
  %9 = alloca i32, align 4
  %10 = alloca i32, align 4
  %11 = alloca i32, align 4
  store ptr %0, ptr %4, align 8, !tbaa !3
  store ptr %1, ptr %5, align 8, !tbaa !3
  %12 = load ptr, ptr %4, align 8
  call void @llvm.lifetime.start.p0(i64 4, ptr %6) #3
  %13 = call noundef i32 @_ZNK10bit_vector9num_wordsEv(ptr noundef nonnull align 8 dereferenceable(16) %12)
  store i32 %13, ptr %6, align 4, !tbaa !8
  %14 = load i32, ptr %6, align 4, !tbaa !8
  %15 = icmp eq i32 %14, 0
  br i1 %15, label %16, label %17

16:                                               ; preds = %2
  store i1 true, ptr %3, align 1
  store i32 1, ptr %7, align 4
  br label %86

17:                                               ; preds = %2
  call void @llvm.lifetime.start.p0(i64 4, ptr %8) #3
  store i32 0, ptr %8, align 4, !tbaa !8
  br label %18

18:                                               ; preds = %49, %17
  %19 = load i32, ptr %8, align 4, !tbaa !8
  %20 = load i32, ptr %6, align 4, !tbaa !8
  %21 = sub i32 %20, 1
  %22 = icmp ult i32 %19, %21
  br i1 %22, label %24, label %23

23:                                               ; preds = %18
  store i32 2, ptr %7, align 4
  br label %52

24:                                               ; preds = %18
  %25 = getelementptr inbounds nuw %class.bit_vector, ptr %12, i32 0, i32 2
  %26 = load ptr, ptr %25, align 8, !tbaa !10
  %27 = load i32, ptr %8, align 4, !tbaa !8
  %28 = zext i32 %27 to i64
  %29 = getelementptr inbounds nuw i32, ptr %26, i64 %28
  %30 = load i32, ptr %29, align 4, !tbaa !8
  %31 = load ptr, ptr %5, align 8, !tbaa !3
  %32 = getelementptr inbounds nuw %class.bit_vector, ptr %31, i32 0, i32 2
  %33 = load ptr, ptr %32, align 8, !tbaa !10
  %34 = load i32, ptr %8, align 4, !tbaa !8
  %35 = zext i32 %34 to i64
  %36 = getelementptr inbounds nuw i32, ptr %33, i64 %35
  %37 = load i32, ptr %36, align 4, !tbaa !8
  %38 = and i32 %30, %37
  %39 = load ptr, ptr %5, align 8, !tbaa !3
  %40 = getelementptr inbounds nuw %class.bit_vector, ptr %39, i32 0, i32 2
  %41 = load ptr, ptr %40, align 8, !tbaa !10
  %42 = load i32, ptr %8, align 4, !tbaa !8
  %43 = zext i32 %42 to i64
  %44 = getelementptr inbounds nuw i32, ptr %41, i64 %43
  %45 = load i32, ptr %44, align 4, !tbaa !8
  %46 = icmp ne i32 %38, %45
  br i1 %46, label %47, label %48

47:                                               ; preds = %24
  store i1 false, ptr %3, align 1
  store i32 1, ptr %7, align 4
  br label %52

48:                                               ; preds = %24
  br label %49

49:                                               ; preds = %48
  %50 = load i32, ptr %8, align 4, !tbaa !8
  %51 = add i32 %50, 1
  store i32 %51, ptr %8, align 4, !tbaa !8
  br label %18, !llvm.loop !38

52:                                               ; preds = %47, %23
  call void @llvm.lifetime.end.p0(i64 4, ptr %8) #3
  %53 = load i32, ptr %7, align 4
  switch i32 %53, label %86 [
    i32 2, label %54
  ]

54:                                               ; preds = %52
  call void @llvm.lifetime.start.p0(i64 4, ptr %9) #3
  %55 = getelementptr inbounds nuw %class.bit_vector, ptr %12, i32 0, i32 0
  %56 = load i32, ptr %55, align 8, !tbaa !16
  %57 = urem i32 %56, 32
  store i32 %57, ptr %9, align 4, !tbaa !8
  call void @llvm.lifetime.start.p0(i64 4, ptr %10) #3
  %58 = load i32, ptr %9, align 4, !tbaa !8
  %59 = shl i32 1, %58
  %60 = sub i32 %59, 1
  store i32 %60, ptr %10, align 4, !tbaa !8
  %61 = load i32, ptr %10, align 4, !tbaa !8
  %62 = icmp eq i32 %61, 0
  br i1 %62, label %63, label %64

63:                                               ; preds = %54
  store i32 -1, ptr %10, align 4, !tbaa !8
  br label %64

64:                                               ; preds = %63, %54
  call void @llvm.lifetime.start.p0(i64 4, ptr %11) #3
  %65 = load ptr, ptr %5, align 8, !tbaa !3
  %66 = getelementptr inbounds nuw %class.bit_vector, ptr %65, i32 0, i32 2
  %67 = load ptr, ptr %66, align 8, !tbaa !10
  %68 = load i32, ptr %6, align 4, !tbaa !8
  %69 = sub i32 %68, 1
  %70 = zext i32 %69 to i64
  %71 = getelementptr inbounds nuw i32, ptr %67, i64 %70
  %72 = load i32, ptr %71, align 4, !tbaa !8
  %73 = load i32, ptr %10, align 4, !tbaa !8
  %74 = and i32 %72, %73
  store i32 %74, ptr %11, align 4, !tbaa !8
  %75 = getelementptr inbounds nuw %class.bit_vector, ptr %12, i32 0, i32 2
  %76 = load ptr, ptr %75, align 8, !tbaa !10
  %77 = load i32, ptr %6, align 4, !tbaa !8
  %78 = sub i32 %77, 1
  %79 = zext i32 %78 to i64
  %80 = getelementptr inbounds nuw i32, ptr %76, i64 %79
  %81 = load i32, ptr %80, align 4, !tbaa !8
  %82 = load i32, ptr %11, align 4, !tbaa !8
  %83 = and i32 %81, %82
  %84 = load i32, ptr %11, align 4, !tbaa !8
  %85 = icmp eq i32 %83, %84
  store i1 %85, ptr %3, align 1
  store i32 1, ptr %7, align 4
  call void @llvm.lifetime.end.p0(i64 4, ptr %11) #3
  call void @llvm.lifetime.end.p0(i64 4, ptr %10) #3
  call void @llvm.lifetime.end.p0(i64 4, ptr %9) #3
  br label %86

86:                                               ; preds = %64, %52, %16
  call void @llvm.lifetime.end.p0(i64 4, ptr %6) #3
  %87 = load i1, ptr %3, align 1
  ret i1 %87
}