; Function Attrs: mustprogress nofree norecurse nosync nounwind willreturn memory(read, inaccessiblemem: none) uwtable
define hidden noundef zeroext i1 @_ZNK10bit_vector8containsERKS_(ptr noundef nonnull readonly align 8 captures(none) dereferenceable(16) %0, ptr noundef nonnull readonly align 8 captures(none) dereferenceable(16) %1) local_unnamed_addr #5 align 2 {
  %3 = load i32, ptr %0, align 8, !tbaa !11
  %4 = add i32 %3, 31
  %5 = icmp ult i32 %4, 32
  br i1 %5, label %.loopexit, label %.preheader

.preheader:                                       ; preds = %2
  %6 = lshr i32 %4, 5
  %7 = add nsw i32 %6, -1
  %.not2224.not = icmp eq i32 %7, 0
  br i1 %.not2224.not, label %.preheader..critedge_crit_edge, label %.lr.ph

.preheader..critedge_crit_edge:                   ; preds = %.preheader
  %.phi.trans.insert = getelementptr inbounds nuw i8, ptr %1, i64 8
  %.pre = load ptr, ptr %.phi.trans.insert, align 8, !tbaa !3
  %.phi.trans.insert28 = getelementptr inbounds nuw i8, ptr %0, i64 8
  %.pre29 = load ptr, ptr %.phi.trans.insert28, align 8, !tbaa !3
  br label %.critedge

.lr.ph:                                           ; preds = %.preheader
  %8 = getelementptr inbounds nuw i8, ptr %0, i64 8
  %9 = load ptr, ptr %8, align 8, !tbaa !3
  %10 = getelementptr inbounds nuw i8, ptr %1, i64 8
  %11 = load ptr, ptr %10, align 8, !tbaa !3
  %wide.trip.count = zext nneg i32 %7 to i64
  br label %13

12:                                               ; preds = %13
  %indvars.iv.next = add nuw nsw i64 %indvars.iv, 1
  %exitcond.not = icmp eq i64 %indvars.iv.next, %wide.trip.count
  br i1 %exitcond.not, label %.critedge, label %13, !llvm.loop !23

13:                                               ; preds = %.lr.ph, %12
  %indvars.iv = phi i64 [ 0, %.lr.ph ], [ %indvars.iv.next, %12 ]
  %14 = getelementptr inbounds nuw i32, ptr %9, i64 %indvars.iv
  %15 = load i32, ptr %14, align 4, !tbaa !12
  %16 = getelementptr inbounds nuw i32, ptr %11, i64 %indvars.iv
  %17 = load i32, ptr %16, align 4, !tbaa !12
  %18 = and i32 %17, %15
  %.not = icmp eq i32 %18, %17
  br i1 %.not, label %12, label %.loopexit

.critedge:                                        ; preds = %12, %.preheader..critedge_crit_edge
  %19 = phi ptr [ %.pre29, %.preheader..critedge_crit_edge ], [ %9, %12 ]
  %.pre-phi = phi i64 [ 0, %.preheader..critedge_crit_edge ], [ %wide.trip.count, %12 ]
  %20 = phi ptr [ %.pre, %.preheader..critedge_crit_edge ], [ %11, %12 ]
  %21 = and i32 %3, 31
  %notmask = shl nsw i32 -1, %21
  %22 = xor i32 %notmask, -1
  %23 = icmp eq i32 %21, 0
  %spec.store.select = select i1 %23, i32 -1, i32 %22
  %24 = getelementptr inbounds nuw i32, ptr %20, i64 %.pre-phi
  %25 = load i32, ptr %24, align 4, !tbaa !12
  %26 = and i32 %25, %spec.store.select
  %27 = getelementptr inbounds nuw i32, ptr %19, i64 %.pre-phi
  %28 = load i32, ptr %27, align 4, !tbaa !12
  %29 = and i32 %28, %26
  %30 = icmp eq i32 %29, %26
  br label %.loopexit

.loopexit:                                        ; preds = %13, %2, %.critedge
  %.0 = phi i1 [ %30, %.critedge ], [ true, %2 ], [ false, %13 ]
  ret i1 %.0
}